target datalayout = "e-m:e-p270:32:32-p271:32:32-p272:64:64-i64:64-i128:128-f80:128-n8:16:32:64-S128"
target triple = "x86_64-pc-linux-gnu"

%struct.Vector3 = type { float, float, float }
%struct.Color = type { i8, i8, i8, i8 }
%struct.Vector2 = type { float, float }
%struct.Texture = type { i32, i32, i32, i32, i32 }
%struct.Camera3D = type { %struct.Vector3, %struct.Vector3, %struct.Vector3, float, i32 }
%struct.Rectangle = type { float, float, float, float }

@__const.DrawBillboardRec.up = private unnamed_addr constant %struct.Vector3 { float 0.000000e+00, float 1.000000e+00, float 0.000000e+00 }, align 4

; Function Attrs: inlinehint nounwind uwtable
define available_externally <2 x float> @Vector2Scale(<2 x float> %0, float noundef %1) #14 {
  %3 = alloca %struct.Vector2, align 4
  %4 = alloca %struct.Vector2, align 4
  %5 = alloca float, align 4
  store <2 x float> %0, ptr %4, align 4
  store float %1, ptr %5, align 4
  %6 = getelementptr inbounds nuw %struct.Vector2, ptr %3, i32 0, i32 0
  %7 = getelementptr inbounds nuw %struct.Vector2, ptr %4, i32 0, i32 0
  %8 = load float, ptr %7, align 4
  %9 = load float, ptr %5, align 4
  %10 = fmul float %8, %9
  store float %10, ptr %6, align 4
  %11 = getelementptr inbounds nuw %struct.Vector2, ptr %3, i32 0, i32 1
  %12 = getelementptr inbounds nuw %struct.Vector2, ptr %4, i32 0, i32 1
  %13 = load float, ptr %12, align 4
  %14 = load float, ptr %5, align 4
  %15 = fmul float %13, %14
  store float %15, ptr %11, align 4
  %16 = load <2 x float>, ptr %3, align 4
  ret <2 x float> %16
}

; Function Attrs: nounwind uwtable
define void @DrawBillboardRec(ptr noundef byval(%struct.Camera3D) align 8 %0, ptr noundef byval(%struct.Texture) align 8 %1, <2 x float> %2, <2 x float> %3, <2 x float> %4, float %5, <2 x float> %6, i32 %7) #10 {
  %9 = alloca %struct.Rectangle, align 4
  %10 = alloca %struct.Vector3, align 4
  %11 = alloca { <2 x float>, float }, align 4
  %12 = alloca %struct.Vector2, align 4
  %13 = alloca %struct.Color, align 1
  %14 = alloca %struct.Vector3, align 4
  %15 = alloca %struct.Vector2, align 4
  %16 = alloca { <2 x float>, float }, align 4
  %17 = alloca { <2 x float>, float }, align 4
  %18 = getelementptr inbounds nuw { <2 x float>, <2 x float> }, ptr %9, i32 0, i32 0
  store <2 x float> %2, ptr %18, align 4
  %19 = getelementptr inbounds nuw { <2 x float>, <2 x float> }, ptr %9, i32 0, i32 1
  store <2 x float> %3, ptr %19, align 4
  %20 = getelementptr inbounds nuw { <2 x float>, float }, ptr %11, i32 0, i32 0
  store <2 x float> %4, ptr %20, align 4
  %21 = getelementptr inbounds nuw { <2 x float>, float }, ptr %11, i32 0, i32 1
  store float %5, ptr %21, align 4
  call void @llvm.memcpy.p0.p0.i64(ptr align 4 %10, ptr align 4 %11, i64 12, i1 false)
  store <2 x float> %6, ptr %12, align 4
  store i32 %7, ptr %13, align 1
  call void @llvm.lifetime.start.p0(i64 12, ptr %14) #16
  call void @llvm.memcpy.p0.p0.i64(ptr align 4 %14, ptr align 4 @__const.DrawBillboardRec.up, i64 12, i1 false)
  %22 = load <2 x float>, ptr %12, align 4
  %23 = call <2 x float> @Vector2Scale(<2 x float> %22, float noundef 5.000000e-01)
  store <2 x float> %23, ptr %15, align 4
  %24 = getelementptr inbounds nuw { <2 x float>, <2 x float> }, ptr %9, i32 0, i32 0
  %25 = load <2 x float>, ptr %24, align 4
  %26 = getelementptr inbounds nuw { <2 x float>, <2 x float> }, ptr %9, i32 0, i32 1
  %27 = load <2 x float>, ptr %26, align 4
  call void @llvm.memcpy.p0.p0.i64(ptr align 4 %16, ptr align 4 %10, i64 12, i1 false)
  %28 = getelementptr inbounds nuw { <2 x float>, float }, ptr %16, i32 0, i32 0
  %29 = load <2 x float>, ptr %28, align 4
  %30 = getelementptr inbounds nuw { <2 x float>, float }, ptr %16, i32 0, i32 1
  %31 = load float, ptr %30, align 4
  call void @llvm.memcpy.p0.p0.i64(ptr align 4 %17, ptr align 4 %14, i64 12, i1 false)
  %32 = getelementptr inbounds nuw { <2 x float>, float }, ptr %17, i32 0, i32 0
  %33 = load <2 x float>, ptr %32, align 4
  %34 = getelementptr inbounds nuw { <2 x float>, float }, ptr %17, i32 0, i32 1
  %35 = load float, ptr %34, align 4
  %36 = load <2 x float>, ptr %12, align 4
  %37 = load <2 x float>, ptr %15, align 4
  %38 = load i32, ptr %13, align 1
  call void @DrawBillboardPro(ptr noundef byval(%struct.Camera3D) align 8 %0, ptr noundef byval(%struct.Texture) align 8 %1, <2 x float> %25, <2 x float> %27, <2 x float> %29, float %31, <2 x float> %33, float %35, <2 x float> %36, <2 x float> %37, float noundef 0.000000e+00, i32 %38)
  call void @llvm.lifetime.end.p0(i64 12, ptr %14) #16
  ret void
}