; Function Attrs: nounwind uwtable
define void @DrawBillboardRec(ptr noundef readonly byval(%struct.Camera3D) align 8 captures(none) %0, ptr noundef readonly byval(%struct.Texture) align 8 captures(none) %1, <2 x float> %2, <2 x float> %3, <2 x float> %4, float %5, <2 x float> %6, i32 %7) local_unnamed_addr #25 {
  %.sroa.0.0.vec.extract.i = extractelement <2 x float> %6, i64 0
  %9 = fmul float %.sroa.0.0.vec.extract.i, 5.000000e-01
  %.sroa.02.0.vec.insert.i = insertelement <2 x float> poison, float %9, i64 0
  %.sroa.0.4.vec.extract.i = extractelement <2 x float> %6, i64 1
  %10 = fmul float %.sroa.0.4.vec.extract.i, 5.000000e-01
  %.sroa.02.4.vec.insert.i = insertelement <2 x float> %.sroa.02.0.vec.insert.i, float %10, i64 1
  tail call void @DrawBillboardPro(ptr noundef nonnull byval(%struct.Camera3D) align 8 %0, ptr noundef nonnull byval(%struct.Texture) align 8 %1, <2 x float> %2, <2 x float> %3, <2 x float> %4, float %5, <2 x float> <float 0.000000e+00, float 1.000000e+00>, float 0.000000e+00, <2 x float> %6, <2 x float> %.sroa.02.4.vec.insert.i, float noundef 0.000000e+00, i32 %7)
  ret void
}